target datalayout = "e-m:e-p270:32:32-p271:32:32-p272:64:64-i64:64-i128:128-f80:128-n8:16:32:64-S128"
target triple = "x86_64-unknown-linux-gnu"

%"class.hermes::vm::StorageProvider" = type { ptr, i64, i64, i64 }
%"class.llvh::ErrorOr" = type { %union.anon, i8, [7 x i8] }
%union.anon = type { %"struct.llvh::AlignedCharArrayUnion.10" }
%"struct.llvh::AlignedCharArrayUnion.10" = type { %"struct.llvh::AlignedCharArray.11" }
%"struct.llvh::AlignedCharArray.11" = type { [16 x i8] }
%"class.std::error_code" = type { i32, ptr }
%"struct.llvh::AlignedCharArray" = type { [8 x i8] }
%"class.hermes::vm::(anonymous namespace)::ContiguousVAStorageProvider" = type { %"class.hermes::vm::StorageProvider", i64, ptr, ptr, %"class.llvh::SmallVector" }
%"class.llvh::SmallVector" = type { %"class.llvh::SmallVectorImpl" }
%"class.llvh::SmallVectorImpl" = type { %"class.llvh::SmallVectorTemplateBase" }
%"class.llvh::SmallVectorTemplateBase" = type { %"class.llvh::SmallVectorTemplateCommon" }
%"class.llvh::SmallVectorTemplateCommon" = type { %"class.llvh::SmallVectorBase" }
%"class.llvh::SmallVectorBase" = type { ptr, i32, i32 }

; Function Attrs: mustprogress nounwind uwtable
define linkonce_odr hidden noundef ptr @_ZN4llvh7ErrorOrIPvE10getStorageEv(ptr noundef nonnull align 8 dereferenceable(17) %this) #0 comdat align 2 {
entry:
  %this.addr = alloca ptr, align 8
  store ptr %this, ptr %this.addr, align 8
  %this1 = load ptr, ptr %this.addr, align 8
  %0 = getelementptr inbounds %"class.llvh::ErrorOr", ptr %this1, i32 0, i32 0
  %buffer = getelementptr inbounds %"struct.llvh::AlignedCharArray", ptr %0, i32 0, i32 0
  %arraydecay = getelementptr inbounds [8 x i8], ptr %buffer, i64 0, i64 0
  ret ptr %arraydecay
}

; Function Attrs: mustprogress nounwind uwtable
define linkonce_odr hidden noundef ptr @_ZN4llvh7ErrorOrIPvE15getErrorStorageEv(ptr noundef nonnull align 8 dereferenceable(17) %this) #0 comdat align 2 {
entry:
  %this.addr = alloca ptr, align 8
  store ptr %this, ptr %this.addr, align 8
  %this1 = load ptr, ptr %this.addr, align 8
  %0 = getelementptr inbounds %"class.llvh::ErrorOr", ptr %this1, i32 0, i32 0
  %buffer = getelementptr inbounds %"struct.llvh::AlignedCharArray.11", ptr %0, i32 0, i32 0
  %arraydecay = getelementptr inbounds [16 x i8], ptr %buffer, i64 0, i64 0
  ret ptr %arraydecay
}

; Function Attrs: mustprogress nounwind uwtable
define linkonce_odr noundef ptr @_ZSt10__exchangeIPcS0_ET_RS1_OT0_(ptr noundef nonnull align 8 dereferenceable(8) %__obj, ptr noundef nonnull align 8 dereferenceable(8) %__new_val) #0 comdat {
entry:
  %__obj.addr = alloca ptr, align 8
  %__new_val.addr = alloca ptr, align 8
  %__old_val = alloca ptr, align 8
  store ptr %__obj, ptr %__obj.addr, align 8
  store ptr %__new_val, ptr %__new_val.addr, align 8
  %0 = load ptr, ptr %__obj.addr, align 8
  %1 = load ptr, ptr %0, align 8
  store ptr %1, ptr %__old_val, align 8
  %2 = load ptr, ptr %__new_val.addr, align 8
  %3 = load ptr, ptr %2, align 8
  %4 = load ptr, ptr %__obj.addr, align 8
  store ptr %3, ptr %4, align 8
  %5 = load ptr, ptr %__old_val, align 8
  ret ptr %5
}

; Function Attrs: mustprogress nounwind uwtable
define linkonce_odr hidden void @_ZN4llvh15SmallVectorBase8set_sizeEm(ptr noundef nonnull align 8 dereferenceable(16) %this, i64 noundef %Size) #0 comdat align 2 {
entry:
  %this.addr = alloca ptr, align 8
  %Size.addr = alloca i64, align 8
  store ptr %this, ptr %this.addr, align 8
  store i64 %Size, ptr %Size.addr, align 8
  %this1 = load ptr, ptr %this.addr, align 8
  %0 = load i64, ptr %Size.addr, align 8
  %conv = trunc i64 %0 to i32
  %Size2 = getelementptr inbounds %"class.llvh::SmallVectorBase", ptr %this1, i32 0, i32 1
  store i32 %conv, ptr %Size2, align 8
  ret void
}

; Function Attrs: mustprogress nounwind uwtable
define linkonce_odr hidden noundef i64 @_ZNK4llvh15SmallVectorBase4sizeEv(ptr noundef nonnull align 8 dereferenceable(16) %this) #0 comdat align 2 {
entry:
  %this.addr = alloca ptr, align 8
  store ptr %this, ptr %this.addr, align 8
  %this1 = load ptr, ptr %this.addr, align 8
  %Size = getelementptr inbounds %"class.llvh::SmallVectorBase", ptr %this1, i32 0, i32 1
  %0 = load i32, ptr %Size, align 8
  %conv = zext i32 %0 to i64
  ret i64 %conv
}

; Function Attrs: mustprogress nounwind uwtable
define linkonce_odr hidden void @_ZN4llvh7ErrorOrIPvED2Ev(ptr noundef nonnull align 8 dereferenceable(17) %this) unnamed_addr #0 comdat align 2 {
entry:
  %this.addr = alloca ptr, align 8
  store ptr %this, ptr %this.addr, align 8
  %this1 = load ptr, ptr %this.addr, align 8
  %HasError = getelementptr inbounds %"class.llvh::ErrorOr", ptr %this1, i32 0, i32 1
  %bf.load = load i8, ptr %HasError, align 8
  %bf.clear = and i8 %bf.load, 1
  %bf.cast = trunc i8 %bf.clear to i1
  br i1 %bf.cast, label %if.end, label %if.then

if.then:                                          ; preds = %entry
  %call = call noundef ptr @_ZN4llvh7ErrorOrIPvE10getStorageEv(ptr noundef nonnull align 8 dereferenceable(17) %this1)
  br label %if.end

if.end:                                           ; preds = %if.then, %entry
  ret void
}

; Function Attrs: mustprogress nounwind uwtable
define linkonce_odr hidden noundef zeroext i1 @_ZNK4llvh7ErrorOrIPvEcvbEv(ptr noundef nonnull align 8 dereferenceable(17) %this) #0 comdat align 2 {
entry:
  %this.addr = alloca ptr, align 8
  store ptr %this, ptr %this.addr, align 8
  %this1 = load ptr, ptr %this.addr, align 8
  %HasError = getelementptr inbounds %"class.llvh::ErrorOr", ptr %this1, i32 0, i32 1
  %bf.load = load i8, ptr %HasError, align 8
  %bf.clear = and i8 %bf.load, 1
  %bf.cast = trunc i8 %bf.clear to i1
  %lnot = xor i1 %bf.cast, true
  ret i1 %lnot
}

; Function Attrs: mustprogress nounwind uwtable
define linkonce_odr hidden void @_ZN4llvh7ErrorOrIPvEC2ESt10error_code(ptr noundef nonnull align 8 dereferenceable(17) %this, i32 %EC.coerce0, ptr %EC.coerce1) unnamed_addr #0 comdat align 2 {
entry:
  %EC = alloca %"class.std::error_code", align 8
  %this.addr = alloca ptr, align 8
  %0 = getelementptr inbounds { i32, ptr }, ptr %EC, i32 0, i32 0
  store i32 %EC.coerce0, ptr %0, align 8
  %1 = getelementptr inbounds { i32, ptr }, ptr %EC, i32 0, i32 1
  store ptr %EC.coerce1, ptr %1, align 8
  store ptr %this, ptr %this.addr, align 8
  %this1 = load ptr, ptr %this.addr, align 8
  %HasError = getelementptr inbounds %"class.llvh::ErrorOr", ptr %this1, i32 0, i32 1
  %bf.load = load i8, ptr %HasError, align 8
  %bf.clear = and i8 %bf.load, -2
  %bf.set = or i8 %bf.clear, 1
  store i8 %bf.set, ptr %HasError, align 8
  %call = call noundef ptr @_ZN4llvh7ErrorOrIPvE15getErrorStorageEv(ptr noundef nonnull align 8 dereferenceable(17) %this1)
  call void @llvm.memcpy.p0.p0.i64(ptr align 8 %call, ptr align 8 %EC, i64 16, i1 false)
  ret void
}

; Function Attrs: mustprogress nounwind uwtable
define linkonce_odr noundef ptr @_ZSt8exchangeIPcS0_ET_RS1_OT0_(ptr noundef nonnull align 8 dereferenceable(8) %__obj, ptr noundef nonnull align 8 dereferenceable(8) %__new_val) #0 comdat {
entry:
  %__obj.addr = alloca ptr, align 8
  %__new_val.addr = alloca ptr, align 8
  store ptr %__obj, ptr %__obj.addr, align 8
  store ptr %__new_val, ptr %__new_val.addr, align 8
  %0 = load ptr, ptr %__obj.addr, align 8
  %1 = load ptr, ptr %__new_val.addr, align 8
  %call = call noundef ptr @_ZSt10__exchangeIPcS0_ET_RS1_OT0_(ptr noundef nonnull align 8 dereferenceable(8) %0, ptr noundef nonnull align 8 dereferenceable(8) %1)
  ret ptr %call
}

; Function Attrs: mustprogress nounwind uwtable
define linkonce_odr hidden noundef i64 @_ZN6hermes2vm14AlignedStorage4sizeEv() #0 comdat align 2 {
entry:
  ret i64 4194304
}

; Function Attrs: mustprogress nounwind uwtable
define linkonce_odr hidden void @_ZN4llvh23SmallVectorTemplateBaseIPvLb1EE8pop_backEv(ptr noundef nonnull align 8 dereferenceable(16) %this) #0 comdat align 2 {
entry:
  %this.addr = alloca ptr, align 8
  store ptr %this, ptr %this.addr, align 8
  %this1 = load ptr, ptr %this.addr, align 8
  %call = call noundef i64 @_ZNK4llvh15SmallVectorBase4sizeEv(ptr noundef nonnull align 8 dereferenceable(16) %this1)
  %sub = sub i64 %call, 1
  call void @_ZN4llvh15SmallVectorBase8set_sizeEm(ptr noundef nonnull align 8 dereferenceable(16) %this1, i64 noundef %sub)
  ret void
}

; Function Attrs: mustprogress nounwind uwtable
define linkonce_odr hidden noundef nonnull align 8 dereferenceable(8) ptr @_ZN4llvh25SmallVectorTemplateCommonIPvvE4backEv(ptr noundef nonnull align 8 dereferenceable(16) %this) #0 comdat align 2 {
entry:
  %this.addr.i.i = alloca ptr, align 8
  %this.addr.i = alloca ptr, align 8
  %this.addr = alloca ptr, align 8
  store ptr %this, ptr %this.addr, align 8
  %this1 = load ptr, ptr %this.addr, align 8
  store ptr %this1, ptr %this.addr.i, align 8
  %this1.i = load ptr, ptr %this.addr.i, align 8
  store ptr %this1.i, ptr %this.addr.i.i, align 8
  %this1.i.i = load ptr, ptr %this.addr.i.i, align 8
  %0 = load ptr, ptr %this1.i.i, align 8
  %call2.i = call noundef i64 @_ZNK4llvh15SmallVectorBase4sizeEv(ptr noundef nonnull align 8 dereferenceable(16) %this1.i)
  %add.ptr.i = getelementptr inbounds ptr, ptr %0, i64 %call2.i
  %arrayidx = getelementptr inbounds ptr, ptr %add.ptr.i, i64 -1
  ret ptr %arrayidx
}

; Function Attrs: mustprogress nounwind uwtable
define linkonce_odr hidden noundef zeroext i1 @_ZNK4llvh15SmallVectorBase5emptyEv(ptr noundef nonnull align 8 dereferenceable(16) %this) #0 comdat align 2 {
entry:
  %this.addr = alloca ptr, align 8
  store ptr %this, ptr %this.addr, align 8
  %this1 = load ptr, ptr %this.addr, align 8
  %Size = getelementptr inbounds %"class.llvh::SmallVectorBase", ptr %this1, i32 0, i32 1
  %0 = load i32, ptr %Size, align 8
  %tobool = icmp ne i32 %0, 0
  %lnot = xor i1 %tobool, true
  ret i1 %lnot
}

; Function Attrs: mustprogress nounwind uwtable
define internal void @_ZN6hermes2vm12_GLOBAL__N_127ContiguousVAStorageProvider14newStorageImplEPKc(ptr noalias sret(%"class.llvh::ErrorOr") align 8 %agg.result, ptr noundef nonnull align 8 dereferenceable(72) %this, ptr noundef %name) unnamed_addr #0 align 2 {
entry:
  %result.ptr = alloca ptr, align 8
  %this.addr = alloca ptr, align 8
  %name.addr = alloca ptr, align 8
  %storage = alloca ptr, align 8
  %ref.tmp = alloca ptr, align 8
  %agg.tmp = alloca %"class.std::error_code", align 8
  %nrvo = alloca i1, align 1
  store ptr %agg.result, ptr %result.ptr, align 8
  store ptr %this, ptr %this.addr, align 8
  store ptr %name, ptr %name.addr, align 8
  %this1 = load ptr, ptr %this.addr, align 8
  %freelist_ = getelementptr inbounds %"class.hermes::vm::(anonymous namespace)::ContiguousVAStorageProvider", ptr %this1, i32 0, i32 4
  %call = call noundef zeroext i1 @_ZNK4llvh15SmallVectorBase5emptyEv(ptr noundef nonnull align 8 dereferenceable(16) %freelist_)
  br i1 %call, label %if.else, label %if.then

if.then:                                          ; preds = %entry
  %freelist_2 = getelementptr inbounds %"class.hermes::vm::(anonymous namespace)::ContiguousVAStorageProvider", ptr %this1, i32 0, i32 4
  %call3 = call noundef nonnull align 8 dereferenceable(8) ptr @_ZN4llvh25SmallVectorTemplateCommonIPvvE4backEv(ptr noundef nonnull align 8 dereferenceable(16) %freelist_2)
  %0 = load ptr, ptr %call3, align 8
  store ptr %0, ptr %storage, align 8
  %freelist_4 = getelementptr inbounds %"class.hermes::vm::(anonymous namespace)::ContiguousVAStorageProvider", ptr %this1, i32 0, i32 4
  call void @_ZN4llvh23SmallVectorTemplateBaseIPvLb1EE8pop_backEv(ptr noundef nonnull align 8 dereferenceable(16) %freelist_4)
  br label %if.end13

if.else:                                          ; preds = %entry
  %level_ = getelementptr inbounds %"class.hermes::vm::(anonymous namespace)::ContiguousVAStorageProvider", ptr %this1, i32 0, i32 3
  %1 = load ptr, ptr %level_, align 8
  %start_ = getelementptr inbounds %"class.hermes::vm::(anonymous namespace)::ContiguousVAStorageProvider", ptr %this1, i32 0, i32 2
  %2 = load ptr, ptr %start_, align 8
  %size_ = getelementptr inbounds %"class.hermes::vm::(anonymous namespace)::ContiguousVAStorageProvider", ptr %this1, i32 0, i32 1
  %3 = load i64, ptr %size_, align 8
  %add.ptr = getelementptr inbounds i8, ptr %2, i64 %3
  %cmp = icmp ult ptr %1, %add.ptr
  br i1 %cmp, label %if.then5, label %if.else11

if.then5:                                         ; preds = %if.else
  %level_6 = getelementptr inbounds %"class.hermes::vm::(anonymous namespace)::ContiguousVAStorageProvider", ptr %this1, i32 0, i32 3
  %level_7 = getelementptr inbounds %"class.hermes::vm::(anonymous namespace)::ContiguousVAStorageProvider", ptr %this1, i32 0, i32 3
  %4 = load ptr, ptr %level_7, align 8
  %call8 = call noundef i64 @_ZN6hermes2vm14AlignedStorage4sizeEv()
  %add.ptr9 = getelementptr inbounds i8, ptr %4, i64 %call8
  store ptr %add.ptr9, ptr %ref.tmp, align 8
  %call10 = call noundef ptr @_ZSt8exchangeIPcS0_ET_RS1_OT0_(ptr noundef nonnull align 8 dereferenceable(8) %level_6, ptr noundef nonnull align 8 dereferenceable(8) %ref.tmp) #11
  store ptr %call10, ptr %storage, align 8
  br label %if.end

if.else11:                                        ; preds = %if.else
  %call12 = call { i32, ptr } @_ZN6hermes15make_error_codeENS_8OOMErrorE(i32 noundef 2)
  %5 = getelementptr inbounds { i32, ptr }, ptr %agg.tmp, i32 0, i32 0
  %6 = extractvalue { i32, ptr } %call12, 0
  store i32 %6, ptr %5, align 8
  %7 = getelementptr inbounds { i32, ptr }, ptr %agg.tmp, i32 0, i32 1
  %8 = extractvalue { i32, ptr } %call12, 1
  store ptr %8, ptr %7, align 8
  %9 = getelementptr inbounds { i32, ptr }, ptr %agg.tmp, i32 0, i32 0
  %10 = load i32, ptr %9, align 8
  %11 = getelementptr inbounds { i32, ptr }, ptr %agg.tmp, i32 0, i32 1
  %12 = load ptr, ptr %11, align 8
  call void @_ZN4llvh7ErrorOrIPvEC2ESt10error_code(ptr noundef nonnull align 8 dereferenceable(17) %agg.result, i32 %10, ptr %12)
  br label %return

if.end:                                           ; preds = %if.then5
  br label %if.end13

if.end13:                                         ; preds = %if.end, %if.then
  store i1 false, ptr %nrvo, align 1
  %13 = load ptr, ptr %storage, align 8
  %call14 = call noundef i64 @_ZN6hermes2vm14AlignedStorage4sizeEv()
  call void @_ZN6hermes8oscompat9vm_commitEPvm(ptr sret(%"class.llvh::ErrorOr") align 8 %agg.result, ptr noundef %13, i64 noundef %call14)
  %call15 = call noundef zeroext i1 @_ZNK4llvh7ErrorOrIPvEcvbEv(ptr noundef nonnull align 8 dereferenceable(17) %agg.result)
  br i1 %call15, label %if.then16, label %if.end18

if.then16:                                        ; preds = %if.end13
  %14 = load ptr, ptr %storage, align 8
  %call17 = call noundef i64 @_ZN6hermes2vm14AlignedStorage4sizeEv()
  %15 = load ptr, ptr %name.addr, align 8
  call void @_ZN6hermes8oscompat7vm_nameEPvmPKc(ptr noundef %14, i64 noundef %call17, ptr noundef %15)
  br label %if.end18

if.end18:                                         ; preds = %if.then16, %if.end13
  store i1 true, ptr %nrvo, align 1
  %nrvo.val = load i1, ptr %nrvo, align 1
  br i1 %nrvo.val, label %nrvo.skipdtor, label %nrvo.unused

nrvo.unused:                                      ; preds = %if.end18
  call void @_ZN4llvh7ErrorOrIPvED2Ev(ptr noundef nonnull align 8 dereferenceable(17) %agg.result) #11
  br label %nrvo.skipdtor

nrvo.skipdtor:                                    ; preds = %nrvo.unused, %if.end18
  br label %return

return:                                           ; preds = %nrvo.skipdtor, %if.else11
  ret void
}