; Function Attrs: mustprogress nounwind uwtable
define internal void @_ZN6hermes2vm12_GLOBAL__N_127ContiguousVAStorageProvider14newStorageImplEPKc(ptr noalias sret(%"class.llvh::ErrorOr") align 8 %agg.result, ptr nocapture noundef nonnull align 8 dereferenceable(72) %this, ptr noundef %name) unnamed_addr #3 align 2 {
entry:
  %Size.i = getelementptr inbounds i8, ptr %this, i64 64
  %0 = load i32, ptr %Size.i, align 8
  %tobool.not.i = icmp eq i32 %0, 0
  br i1 %tobool.not.i, label %if.else, label %if.then

if.then:                                          ; preds = %entry
  %freelist_ = getelementptr inbounds i8, ptr %this, i64 56
  %1 = load ptr, ptr %freelist_, align 8
  %conv.i.i = zext i32 %0 to i64
  %add.ptr.i.i = getelementptr inbounds ptr, ptr %1, i64 %conv.i.i
  %arrayidx.i = getelementptr inbounds i8, ptr %add.ptr.i.i, i64 -8
  %2 = load ptr, ptr %arrayidx.i, align 8
  %sub.i = add i32 %0, -1
  store i32 %sub.i, ptr %Size.i, align 8
  br label %if.end13

if.else:                                          ; preds = %entry
  %level_ = getelementptr inbounds i8, ptr %this, i64 48
  %3 = load ptr, ptr %level_, align 8
  %start_ = getelementptr inbounds i8, ptr %this, i64 40
  %4 = load ptr, ptr %start_, align 8
  %size_ = getelementptr inbounds i8, ptr %this, i64 32
  %5 = load i64, ptr %size_, align 8
  %add.ptr = getelementptr inbounds i8, ptr %4, i64 %5
  %cmp = icmp ult ptr %3, %add.ptr
  br i1 %cmp, label %if.then5, label %if.else11

if.then5:                                         ; preds = %if.else
  %add.ptr9 = getelementptr inbounds i8, ptr %3, i64 4194304
  store ptr %add.ptr9, ptr %level_, align 8
  br label %if.end13

if.else11:                                        ; preds = %if.else
  %call12 = tail call { i32, ptr } @_ZN6hermes15make_error_codeENS_8OOMErrorE(i32 noundef 2) #18
  %6 = extractvalue { i32, ptr } %call12, 0
  %7 = extractvalue { i32, ptr } %call12, 1
  %HasError.i = getelementptr inbounds i8, ptr %agg.result, i64 16
  %bf.load.i = load i8, ptr %HasError.i, align 8
  %bf.set.i = or i8 %bf.load.i, 1
  store i8 %bf.set.i, ptr %HasError.i, align 8
  store i32 %6, ptr %agg.result, align 8
  %EC.sroa.21.0.call.sroa_idx.i = getelementptr inbounds i8, ptr %agg.result, i64 8
  store ptr %7, ptr %EC.sroa.21.0.call.sroa_idx.i, align 8
  br label %return

if.end13:                                         ; preds = %if.then5, %if.then
  %storage.0 = phi ptr [ %3, %if.then5 ], [ %2, %if.then ]
  tail call void @_ZN6hermes8oscompat9vm_commitEPvm(ptr sret(%"class.llvh::ErrorOr") align 8 %agg.result, ptr noundef %storage.0, i64 noundef 4194304) #18
  %HasError.i3 = getelementptr inbounds i8, ptr %agg.result, i64 16
  %bf.load.i4 = load i8, ptr %HasError.i3, align 8
  %8 = and i8 %bf.load.i4, 1
  %bf.cast.not.i = icmp eq i8 %8, 0
  br i1 %bf.cast.not.i, label %if.then16, label %return

if.then16:                                        ; preds = %if.end13
  tail call void @_ZN6hermes8oscompat7vm_nameEPvmPKc(ptr noundef %storage.0, i64 noundef 4194304, ptr noundef %name) #18
  br label %return

return:                                           ; preds = %if.end13, %if.then16, %if.else11
  ret void
}